CCS PCM C Compiler, Version 3.180, 21719

               Filename: I:\Classe_2SE\denysmatthieu\électronique\TP_TV_2\RC5 émission\RC5_2.LST

               ROM used: 370 (5%)
                         Largest free fragment is 2048
               RAM used: 25 (16%) at main() level
                         27 (17%) worst case
               Stack:    3 worst case (2 in main + 1 for interrupts)

*
0000:  NOP
0001:  MOVLW  00
0002:  MOVWF  0A
0003:  GOTO   0F3
0004:  MOVWF  7F
0005:  SWAPF  03,W
0006:  CLRF   03
0007:  MOVWF  21
0008:  MOVF   0A,W
0009:  MOVWF  20
000A:  CLRF   0A
000B:  MOVF   04,W
000C:  MOVWF  22
000D:  MOVF   77,W
000E:  MOVWF  23
000F:  MOVF   78,W
0010:  MOVWF  24
0011:  MOVF   79,W
0012:  MOVWF  25
0013:  MOVF   7A,W
0014:  MOVWF  26
0015:  MOVF   7B,W
0016:  MOVWF  27
0017:  BCF    03.7
0018:  BCF    03.5
0019:  BTFSS  0B.5
001A:  GOTO   01D
001B:  BTFSC  0B.2
001C:  GOTO   030
001D:  MOVF   22,W
001E:  MOVWF  04
001F:  MOVF   23,W
0020:  MOVWF  77
0021:  MOVF   24,W
0022:  MOVWF  78
0023:  MOVF   25,W
0024:  MOVWF  79
0025:  MOVF   26,W
0026:  MOVWF  7A
0027:  MOVF   27,W
0028:  MOVWF  7B
0029:  MOVF   20,W
002A:  MOVWF  0A
002B:  SWAPF  21,W
002C:  MOVWF  03
002D:  SWAPF  7F,F
002E:  SWAPF  7F,W
002F:  RETFIE
0030:  BCF    0A.3
0031:  BCF    0A.4
0032:  GOTO   033
....................  #if defined (__PCM__)  
.................... #include <16F877A.h> 
....................  //////// Standard Header file for the PIC16F877A device ////////////////  
.................... #device PIC16F877A  
.................... #list  
....................  
.................... #device ICD=TRUE  
.................... #fuses HS,NOWDT,NOPROTECT  
.................... #endif  
.................... #use delay(clock=20000000)  
*
003B:  MOVLW  34
003C:  MOVWF  04
003D:  MOVF   00,W
003E:  BTFSC  03.2
003F:  GOTO   04D
0040:  MOVLW  06
0041:  MOVWF  78
0042:  CLRF   77
0043:  DECFSZ 77,F
0044:  GOTO   043
0045:  DECFSZ 78,F
0046:  GOTO   042
0047:  MOVLW  7B
0048:  MOVWF  77
0049:  DECFSZ 77,F
004A:  GOTO   049
004B:  DECFSZ 00,F
004C:  GOTO   040
004D:  RETLW  00
*
00A3:  MOVLW  34
00A4:  MOVWF  04
00A5:  MOVF   00,W
00A6:  BTFSC  03.2
00A7:  GOTO   0AD
00A8:  GOTO   0AB
00A9:  NOP
00AA:  NOP
00AB:  DECFSZ 00,F
00AC:  GOTO   0A9
00AD:  RETLW  00
....................   
.................... #define val1 0xE1  
.................... byte a,n,i,x,var,val2,var0,var1,var_tim0,ID; // variable  
....................   
.................... #int_timer0  
.................... void tmer0_int()  
.................... {  
.................... set_timer0(118); // interruption tout les 1.778ms  
*
0033:  MOVLW  76
0034:  MOVWF  01
.................... var_tim0=1;  
0035:  MOVLW  01
0036:  MOVWF  30
.................... }  
....................   
0037:  BCF    0B.2
0038:  BCF    0A.3
0039:  BCF    0A.4
003A:  GOTO   01D
.................... void init(void);  
.................... void trans(void); // fonction de transmission  
....................   
.................... main()  
.................... {  
*
00F3:  CLRF   04
00F4:  MOVLW  1F
00F5:  ANDWF  03,F
00F6:  MOVLW  06
00F7:  BSF    03.5
00F8:  MOVWF  1F
00F9:  MOVLW  07
00FA:  BCF    03.5
00FB:  MOVWF  1F
.................... x = 0; // chaine (nombre de fois qu'on appuie sur le bouton)  
*
00FE:  CLRF   2B
.................... val2 = 0x00;  
00FF:  CLRF   2D
....................   
.................... while(n<200)  
.................... {  
0100:  MOVF   29,W
0101:  SUBLW  C7
0102:  BTFSS  03.0
0103:  GOTO   114
....................    while(pin_A4 == 1 || n<200)  
....................    {  
0104:  MOVF   29,W
0105:  SUBLW  C7
0106:  BTFSS  03.0
0107:  GOTO   10D
....................    n++;  
0108:  INCF   29,F
....................    delay_ms(25); // 5 secondes  
0109:  MOVLW  19
010A:  MOVWF  34
010B:  CALL   03B
....................    }  
010C:  GOTO   104
....................    if(n<200)  
....................    {  
010D:  MOVF   29,W
010E:  SUBLW  C7
010F:  BTFSS  03.0
0110:  GOTO   113
....................    x = x + 1;  
0111:  MOVLW  01
0112:  ADDWF  2B,F
....................    }  
.................... }  
0113:  GOTO   100
....................   
.................... n = 0;  
0114:  CLRF   29
.................... x = x % 6;  
0115:  MOVF   2B,W
0116:  MOVWF  33
0117:  MOVLW  06
0118:  MOVWF  34
0119:  GOTO   04E
011A:  MOVF   77,W
011B:  MOVWF  2B
....................   
.................... if(x == 0)  
.................... val2 = 0x00;  
011C:  MOVF   2B,F
011D:  BTFSS  03.2
011E:  GOTO   121
011F:  CLRF   2D
.................... else if (x == 1)  
0120:  GOTO   141
.................... val2 = 0x04;  
0121:  DECFSZ 2B,W
0122:  GOTO   126
0123:  MOVLW  04
0124:  MOVWF  2D
.................... else if (x == 2)  
0125:  GOTO   141
.................... val2 = 0x08;  
0126:  MOVF   2B,W
0127:  SUBLW  02
0128:  BTFSS  03.2
0129:  GOTO   12D
012A:  MOVLW  08
012B:  MOVWF  2D
.................... else if (x == 3)  
012C:  GOTO   141
.................... val2 = 0x0C;  
012D:  MOVF   2B,W
012E:  SUBLW  03
012F:  BTFSS  03.2
0130:  GOTO   134
0131:  MOVLW  0C
0132:  MOVWF  2D
.................... else if (x == 4)  
0133:  GOTO   141
.................... val2 = 0x10;  
0134:  MOVF   2B,W
0135:  SUBLW  04
0136:  BTFSS  03.2
0137:  GOTO   13B
0138:  MOVLW  10
0139:  MOVWF  2D
.................... else if (x == 5)  
013A:  GOTO   141
.................... val2 = 0x14;   
013B:  MOVF   2B,W
013C:  SUBLW  05
013D:  BTFSS  03.2
013E:  GOTO   141
013F:  MOVLW  14
0140:  MOVWF  2D
....................   
.................... init();  
0141:  GOTO   065
....................      
.................... while(true){  
.................... for(a=0; a<2; a++)  
0142:  CLRF   28
0143:  MOVF   28,W
0144:  SUBLW  01
0145:  BTFSS  03.0
0146:  GOTO   163
.................... {  
.................... set_timer0(12);  
0147:  MOVLW  0C
0148:  MOVWF  01
.................... enable_interrupts(INT_TIMER0);  
0149:  BSF    0B.5
.................... i=7;  
014A:  MOVLW  07
014B:  MOVWF  2A
.................... switch (a)  
.................... {  
014C:  MOVF   28,W
014D:  MOVWF  77
014E:  MOVF   77,F
014F:  BTFSC  03.2
0150:  GOTO   156
0151:  MOVLW  01
0152:  SUBWF  77,W
0153:  BTFSC  03.2
0154:  GOTO   15A
0155:  GOTO   15F
....................    case 0 :  
....................       n=0;  
0156:  CLRF   29
....................       var=val1;  
0157:  MOVLW  E1
0158:  MOVWF  2C
....................       break;  
0159:  GOTO   15F
....................    case 1 :  
....................       n=2;  
015A:  MOVLW  02
015B:  MOVWF  29
....................       var=val2;  
015C:  MOVF   2D,W
015D:  MOVWF  2C
....................       break;  
015E:  GOTO   15F
.................... }  
.................... trans();  
015F:  GOTO   0AE
.................... disable_interrupts(INT_TIMER0);  
0160:  BCF    0B.5
.................... }  
0161:  INCF   28,F
0162:  GOTO   143
.................... delay_us(889);  
0163:  MOVLW  07
0164:  MOVWF  33
0165:  MOVLW  7C
0166:  MOVWF  34
0167:  CALL   0A3
0168:  DECFSZ 33,F
0169:  GOTO   165
.................... output_low(pin_c4);  
*
00FC:  MOVLW  FF
00FD:  MOVWF  32
*
016A:  BCF    32.4
016B:  MOVF   32,W
016C:  BSF    03.5
016D:  MOVWF  07
016E:  BCF    03.5
016F:  BCF    07.4
.................... }  
0170:  GOTO   142
.................... }  
....................   
.................... void init(void){  
.................... setup_counters(RTCC_INTERNAL,RTCC_DIV_64);  
*
0065:  MOVLW  05
0066:  MOVWF  77
0067:  BTFSS  77.3
0068:  GOTO   071
0069:  MOVLW  07
006A:  CLRF   01
006B:  MOVLW  81
006C:  MOVWF  04
006D:  MOVF   00,W
006E:  ANDLW  C0
006F:  IORLW  0F
0070:  MOVWF  00
0071:  CLRWDT
0072:  MOVLW  81
0073:  MOVWF  04
0074:  MOVF   00,W
0075:  ANDLW  C0
0076:  IORWF  77,W
0077:  MOVWF  00
*
0171:  GOTO   171
.................... set_tris_c( 0x00);  
*
0078:  MOVLW  00
0079:  BSF    03.5
007A:  MOVWF  07
007B:  BCF    03.5
007C:  MOVWF  32
.................... output_c(0x00);  
007D:  MOVWF  32
007E:  BSF    03.5
007F:  MOVWF  07
0080:  BCF    03.5
0081:  CLRF   07
.................... n=0;  
0082:  CLRF   29
.................... do{  
.................... output_high(pin_b5);  
0083:  BSF    03.5
0084:  BCF    06.5
0085:  BCF    03.5
0086:  BSF    06.5
.................... delay_ms(500);  
0087:  MOVLW  02
0088:  MOVWF  33
0089:  MOVLW  FA
008A:  MOVWF  34
008B:  CALL   03B
008C:  DECFSZ 33,F
008D:  GOTO   089
.................... output_low(pin_b5);  
008E:  BSF    03.5
008F:  BCF    06.5
0090:  BCF    03.5
0091:  BCF    06.5
.................... delay_ms(500);  
0092:  MOVLW  02
0093:  MOVWF  33
0094:  MOVLW  FA
0095:  MOVWF  34
0096:  CALL   03B
0097:  DECFSZ 33,F
0098:  GOTO   094
.................... n++;  
0099:  INCF   29,F
.................... }while(n<=5);  
.................... enable_interrupts(GLOBAL);  
009A:  MOVF   29,W
009B:  SUBLW  05
009C:  BTFSC  03.0
009D:  GOTO   083
009E:  MOVLW  C0
009F:  IORWF  0B,F
.................... }  
00A0:  BCF    0A.3
00A1:  BCF    0A.4
00A2:  GOTO   142 (RETURN)
....................   
.................... void trans(void){  
.................... do{  
.................... while(var_tim0==0){};  
*
00AE:  MOVF   30,F
00AF:  BTFSS  03.2
00B0:  GOTO   0B2
00B1:  GOTO   0AE
.................... var_tim0=0;  
00B2:  CLRF   30
.................... if(bit_test(var,i)==1) // inverse  
.................... {  
00B3:  MOVF   2C,W
00B4:  MOVWF  77
00B5:  MOVF   2A,W
00B6:  MOVWF  78
00B7:  BTFSC  03.2
00B8:  GOTO   0BD
00B9:  BCF    03.0
00BA:  RRF    77,F
00BB:  DECFSZ 78,F
00BC:  GOTO   0B9
00BD:  MOVLW  00
00BE:  BTFSC  77.0
00BF:  MOVLW  01
00C0:  SUBLW  01
00C1:  BTFSS  03.2
00C2:  GOTO   0D7
....................    output_low(pin_c4);  
00C3:  BCF    32.4
00C4:  MOVF   32,W
00C5:  BSF    03.5
00C6:  MOVWF  07
00C7:  BCF    03.5
00C8:  BCF    07.4
....................    delay_us(889);  
00C9:  MOVLW  07
00CA:  MOVWF  33
00CB:  MOVLW  7C
00CC:  MOVWF  34
00CD:  CALL   0A3
00CE:  DECFSZ 33,F
00CF:  GOTO   0CB
....................    output_high(pin_c4);  
00D0:  BCF    32.4
00D1:  MOVF   32,W
00D2:  BSF    03.5
00D3:  MOVWF  07
00D4:  BCF    03.5
00D5:  BSF    07.4
.................... }  
.................... else  
.................... {   
00D6:  GOTO   0EA
....................    output_high(pin_c4);  
00D7:  BCF    32.4
00D8:  MOVF   32,W
00D9:  BSF    03.5
00DA:  MOVWF  07
00DB:  BCF    03.5
00DC:  BSF    07.4
....................    delay_us(889);  
00DD:  MOVLW  07
00DE:  MOVWF  33
00DF:  MOVLW  7C
00E0:  MOVWF  34
00E1:  CALL   0A3
00E2:  DECFSZ 33,F
00E3:  GOTO   0DF
....................    output_low(pin_c4);  
00E4:  BCF    32.4
00E5:  MOVF   32,W
00E6:  BSF    03.5
00E7:  MOVWF  07
00E8:  BCF    03.5
00E9:  BCF    07.4
.................... }  
.................... i--;n++;  
00EA:  DECF   2A,F
00EB:  INCF   29,F
.................... }while(n<8);  
.................... }  
00EC:  MOVF   29,W
00ED:  SUBLW  07
00EE:  BTFSC  03.0
00EF:  GOTO   0AE
00F0:  BCF    0A.3
00F1:  BCF    0A.4
00F2:  GOTO   160 (RETURN)
....................  

Configuration Fuses:
   Word  1: 3732   HS NOWDT PUT DEBUG NOPROTECT NOBROWNOUT NOLVP NOCPD NOWRT
